; Function Attrs: nounwind uwtable
define ptr @l___private_Lean_Elab_BuiltinEvalCommand_0__Lean_Elab_Command_elabTermForEval_synthesizeWithHinting___lambda__1(ptr noundef %0, ptr noundef %1, ptr readnone captures(none) %2, ptr noundef %3, ptr noundef %4, ptr noundef %5, ptr noundef %6, ptr noundef %7, ptr noundef %8, ptr noundef %9) local_unnamed_addr #0 {
  %11 = tail call ptr @l_Lean_Elab_Term_SavedState_restore(ptr noundef %0, i8 noundef zeroext 1, ptr noundef %3, ptr noundef %4, ptr noundef %5, ptr noundef %6, ptr noundef %7, ptr noundef %8, ptr noundef %9) #5
  %.val = load i32, ptr %11, align 4, !tbaa !8
  %12 = icmp eq i32 %.val, 1
  br i1 %12, label %13, label %29

13:                                               ; preds = %10
  %14 = getelementptr inbounds nuw i8, ptr %11, i64 8
  %15 = load ptr, ptr %14, align 8, !tbaa !4
  %16 = ptrtoint ptr %15 to i64
  %17 = and i64 %16, 1
  %.not30 = icmp eq i64 %17, 0
  br i1 %.not30, label %18, label %lean_dec.exit25

18:                                               ; preds = %13
  %19 = load i32, ptr %15, align 4, !tbaa !8
  %20 = icmp sgt i32 %19, 1
  br i1 %20, label %21, label %23, !prof !11

21:                                               ; preds = %18
  %22 = add nsw i32 %19, -1
  store i32 %22, ptr %15, align 4, !tbaa !8
  br label %lean_dec.exit25

23:                                               ; preds = %18
  %.not.i = icmp eq i32 %19, 0
  br i1 %.not.i, label %lean_dec.exit25, label %24

24:                                               ; preds = %23
  tail call void @lean_dec_ref_cold(ptr noundef nonnull %15) #5
  br label %lean_dec.exit25

lean_dec.exit25:                                  ; preds = %24, %23, %21, %13
  %25 = getelementptr inbounds nuw i8, ptr %11, i64 4
  %26 = load i32, ptr %25, align 4
  %27 = and i32 %26, 16777215
  %28 = or disjoint i32 %27, 16777216
  store i32 %28, ptr %25, align 4
  store ptr %1, ptr %14, align 8, !tbaa !4
  br label %55

29:                                               ; preds = %10
  %30 = getelementptr inbounds nuw i8, ptr %11, i64 16
  %31 = load ptr, ptr %30, align 8, !tbaa !4
  %32 = ptrtoint ptr %31 to i64
  %33 = and i64 %32, 1
  %.not = icmp eq i64 %33, 0
  br i1 %.not, label %34, label %lean_inc.exit

34:                                               ; preds = %29
  %.val.i = load i32, ptr %31, align 4, !tbaa !8
  %35 = icmp sgt i32 %.val.i, 0
  br i1 %35, label %36, label %38, !prof !11

36:                                               ; preds = %34
  %37 = add nuw i32 %.val.i, 1
  store i32 %37, ptr %31, align 4, !tbaa !8
  br label %lean_inc.exit

38:                                               ; preds = %34
  %.not.i28 = icmp eq i32 %.val.i, 0
  br i1 %.not.i28, label %lean_inc.exit, label %39

39:                                               ; preds = %38
  tail call void @lean_inc_ref_cold(ptr noundef nonnull %31) #5
  br label %lean_inc.exit

lean_inc.exit:                                    ; preds = %39, %38, %36, %29
  %40 = ptrtoint ptr %11 to i64
  %41 = and i64 %40, 1
  %.not29 = icmp eq i64 %41, 0
  br i1 %.not29, label %42, label %lean_dec.exit

42:                                               ; preds = %lean_inc.exit
  %43 = load i32, ptr %11, align 4, !tbaa !8
  %44 = icmp sgt i32 %43, 1
  br i1 %44, label %45, label %47, !prof !11

45:                                               ; preds = %42
  %46 = add nsw i32 %43, -1
  store i32 %46, ptr %11, align 4, !tbaa !8
  br label %lean_dec.exit

47:                                               ; preds = %42
  %.not.i26 = icmp eq i32 %43, 0
  br i1 %.not.i26, label %lean_dec.exit, label %48

48:                                               ; preds = %47
  tail call void @lean_dec_ref_cold(ptr noundef nonnull %11) #5
  br label %lean_dec.exit

lean_dec.exit:                                    ; preds = %48, %47, %45, %lean_inc.exit
  tail call void @lean_inc_heartbeat() #5
  %49 = tail call noalias ptr @mi_malloc_small(i64 noundef 24) #5
  %50 = icmp eq ptr %49, null
  br i1 %50, label %51, label %lean_alloc_ctor.exit

51:                                               ; preds = %lean_dec.exit
  tail call void @lean_internal_panic_out_of_memory() #6
  unreachable

lean_alloc_ctor.exit:                             ; preds = %lean_dec.exit
  %52 = getelementptr inbounds nuw i8, ptr %49, i64 4
  store i32 1, ptr %49, align 4, !tbaa !8
  store i32 16908312, ptr %52, align 4
  %53 = getelementptr inbounds nuw i8, ptr %49, i64 8
  store ptr %1, ptr %53, align 8, !tbaa !4
  %54 = getelementptr inbounds nuw i8, ptr %49, i64 16
  store ptr %31, ptr %54, align 8, !tbaa !4
  br label %55

55:                                               ; preds = %lean_alloc_ctor.exit, %lean_dec.exit25
  %.0 = phi ptr [ %11, %lean_dec.exit25 ], [ %49, %lean_alloc_ctor.exit ]
  ret ptr %.0
}